(iProcess
Process
p0
(dp1
S'timeLeft'
p2
I10
sS'name'
p3
S'hacer_llamada'
p4
sS'execution_time'
p5
I10
sS'execution_date'
p6
I41
sS'pid'
p7
I0
sS'process_type'
p8
I1
sS'priority'
p9
I0
sS'otros'
p10
(lp11
S'2277567'
p12
aS'10\n'
p13
asb.