(iProcess
Process
p0
(dp1
S'use'
p2
(lp3
I1
aI3
aI4
aI5
asS'timeLeft'
p4
I36000
sS'name'
p5
S'lol'
p6
sS'execution_time'
p7
I36000
sS'execution_date'
p8
I42
sS'pid'
p9
I1
sS'process_type'
p10
I9
sS'priority'
p11
I8
sS'runningTime'
p12
I65
sS'cortable'
p13
I01
sS'need'
p14
I0
sS'otros'
p15
(lp16
S'36000'
p17
asS'block'
p18
(lp19
sb.