(iProcess
Process
p0
(dp1
S'timeLeft'
p2
I15
sS'name'
p3
S'recibir_llamada'
p4
sS'execution_time'
p5
I15
sS'execution_date'
p6
I40
sS'pid'
p7
I10
sS'process_type'
p8
I2
sS'priority'
p9
I0
sS'otros'
p10
(lp11
S'2277567'
p12
aS'15\n'
p13
asb.