(iProcess
Process
p0
(dp1
S'timeLeft'
p2
I332425
sS'name'
p3
S'hacer_llamada'
p4
sS'execution_time'
p5
I332425
sS'execution_date'
p6
I120
sS'pid'
p7
I14
sS'process_type'
p8
I0
sS'priority'
p9
I1
sS'otros'
p10
(lp11
S'332425'
p12
aS'10'
p13
asb.