(iProcess
Process
p0
(dp1
S'timeLeft'
p2
I2
sS'name'
p3
S'nuevo_contacto'
p4
sS'execution_time'
p5
I2
sS'execution_date'
p6
I6
sS'pid'
p7
I16
sS'process_type'
p8
I5
sS'priority'
p9
I6
sS'otros'
p10
(lp11
S'fr'
p12
aS'44'
p13
asb.