(iProcess
Process
p0
(dp1
S'timeLeft'
p2
I3
sS'name'
p3
S'hacer_llamada'
p4
sS'execution_time'
p5
I3
sS'execution_date'
p6
I42
sS'pid'
p7
I16
sS'process_type'
p8
I1
sS'priority'
p9
I0
sS'otros'
p10
(lp11
S'Cristobal Jimenez\n'
p12
aS'3'
p13
asb.