(iProcess
Process
p0
(dp1
S'timeLeft'
p2
I36000
sS'name'
p3
S'hacer_llamada'
p4
sS'execution_time'
p5
I36000
sS'execution_date'
p6
I223
sS'pid'
p7
I17
sS'process_type'
p8
I1
sS'priority'
p9
I0
sS'otros'
p10
(lp11
S'55'
p12
aS'36000'
p13
asb.