(iProcess
Process
p0
(dp1
S'use'
p2
(lp3
I3
aI4
asS'timeLeft'
p4
I2
sS'name'
p5
S'mandar_ubicacion'
p6
sS'execution_time'
p7
I2
sS'execution_date'
p8
I150
sS'pid'
p9
I18
sS'process_type'
p10
I7
sS'priority'
p11
I8
sS'runningTime'
p12
I0
sS'cortable'
p13
I00
sS'need'
p14
NsS'otros'
p15
(lp16
S'2'
p17
asS'block'
p18
(lp19
sb.