(iProcess
Process
p0
(dp1
S'use'
p2
(lp3
I0
aI4
aI5
asS'timeLeft'
p4
I36000
sS'name'
p5
S'hacer_llamada'
p6
sS'execution_time'
p7
I36000
sS'execution_date'
p8
I35
sS'pid'
p9
I2
sS'process_type'
p10
I1
sS'priority'
p11
I0
sS'runningTime'
p12
I0
sS'cortable'
p13
I01
sS'need'
p14
NsS'otros'
p15
(lp16
S'89327702'
p17
aS'36000'
p18
asS'block'
p19
(lp20
I1
aI2
asb.