(iProcess
Process
p0
(dp1
S'timeLeft'
p2
I60
sS'name'
p3
S'dota2'
p4
sS'execution_time'
p5
I60
sS'execution_date'
p6
I6
sS'pid'
p7
I2
sS'process_type'
p8
I9
sS'priority'
p9
I8
sS'otros'
p10
(lp11
S'60'
p12
asb.