(iProcess
Process
p0
(dp1
S'timeLeft'
p2
F1.0
sS'name'
p3
S'recibir_mensajes'
p4
sS'execution_time'
p5
F1.0
sS'execution_date'
p6
I4
sS'pid'
p7
I3
sS'process_type'
p8
I4
sS'priority'
p9
I2
sS'otros'
p10
(lp11
S'2277567'
p12
aS'Bien y tu?\n'
p13
asb.