(iProcess
Process
p0
(dp1
S'timeLeft'
p2
I2
sS'name'
p3
S'agregar_contacto'
p4
sS'execution_time'
p5
I2
sS'execution_date'
p6
I6
sS'pid'
p7
I5
sS'process_type'
p8
I5
sS'priority'
p9
I2
sS'otros'
p10
(lp11
S'Cristobal Jimenez'
p12
aS'2277567\n'
p13
asb.