(iProcess
Process
p0
(dp1
S'timeLeft'
p2
I30
sS'name'
p3
S'musica'
p4
sS'execution_time'
p5
I30
sS'execution_date'
p6
I18
sS'pid'
p7
I9
sS'process_type'
p8
I10
sS'priority'
p9
I8
sS'otros'
p10
(lp11
S'30\n'
p12
asb.